; Function Attrs: nounwind uwtable
define ptr @l_Lean_Compiler_LCNF_Testing_getInputDecls(ptr noundef %0, ptr readnone captures(none) %1, ptr readnone captures(none) %2, ptr readnone captures(none) %3, ptr readnone captures(none) %4, ptr readnone captures(none) %5, ptr noundef %6) local_unnamed_addr #0 {
  %.val = load i32, ptr %0, align 4, !tbaa !9
  %8 = icmp eq i32 %.val, 1
  br i1 %8, label %9, label %21

9:                                                ; preds = %7
  %10 = getelementptr inbounds nuw i8, ptr %0, i64 16
  %11 = load ptr, ptr %10, align 8, !tbaa !7
  %12 = ptrtoint ptr %11 to i64
  %13 = and i64 %12, 1
  %.not20 = icmp eq i64 %13, 0
  br i1 %.not20, label %14, label %lean_dec.exit15

14:                                               ; preds = %9
  %15 = load i32, ptr %11, align 4, !tbaa !9
  %16 = icmp sgt i32 %15, 1
  br i1 %16, label %17, label %19, !prof !12

17:                                               ; preds = %14
  %18 = add nsw i32 %15, -1
  store i32 %18, ptr %11, align 4, !tbaa !9
  br label %lean_dec.exit15

19:                                               ; preds = %14
  %.not.i = icmp eq i32 %15, 0
  br i1 %.not.i, label %lean_dec.exit15, label %20

20:                                               ; preds = %19
  tail call void @lean_dec_ref_cold(ptr noundef nonnull %11) #5
  br label %lean_dec.exit15

lean_dec.exit15:                                  ; preds = %20, %19, %17, %9
  store ptr %6, ptr %10, align 8, !tbaa !7
  br label %47

21:                                               ; preds = %7
  %22 = getelementptr inbounds nuw i8, ptr %0, i64 8
  %23 = load ptr, ptr %22, align 8, !tbaa !7
  %24 = ptrtoint ptr %23 to i64
  %25 = and i64 %24, 1
  %.not = icmp eq i64 %25, 0
  br i1 %.not, label %26, label %lean_inc.exit

26:                                               ; preds = %21
  %.val.i = load i32, ptr %23, align 4, !tbaa !9
  %27 = icmp sgt i32 %.val.i, 0
  br i1 %27, label %28, label %30, !prof !12

28:                                               ; preds = %26
  %29 = add nuw i32 %.val.i, 1
  store i32 %29, ptr %23, align 4, !tbaa !9
  br label %lean_inc.exit

30:                                               ; preds = %26
  %.not.i18 = icmp eq i32 %.val.i, 0
  br i1 %.not.i18, label %lean_inc.exit, label %31

31:                                               ; preds = %30
  tail call void @lean_inc_ref_cold(ptr noundef nonnull %23) #5
  br label %lean_inc.exit

lean_inc.exit:                                    ; preds = %31, %30, %28, %21
  %32 = ptrtoint ptr %0 to i64
  %33 = and i64 %32, 1
  %.not19 = icmp eq i64 %33, 0
  br i1 %.not19, label %34, label %lean_dec.exit

34:                                               ; preds = %lean_inc.exit
  %35 = load i32, ptr %0, align 4, !tbaa !9
  %36 = icmp sgt i32 %35, 1
  br i1 %36, label %37, label %39, !prof !12

37:                                               ; preds = %34
  %38 = add nsw i32 %35, -1
  store i32 %38, ptr %0, align 4, !tbaa !9
  br label %lean_dec.exit

39:                                               ; preds = %34
  %.not.i16 = icmp eq i32 %35, 0
  br i1 %.not.i16, label %lean_dec.exit, label %40

40:                                               ; preds = %39
  tail call void @lean_dec_ref_cold(ptr noundef nonnull %0) #5
  br label %lean_dec.exit

lean_dec.exit:                                    ; preds = %40, %39, %37, %lean_inc.exit
  tail call void @lean_inc_heartbeat() #5
  %41 = tail call noalias ptr @mi_malloc_small(i64 noundef 24) #5
  %42 = icmp eq ptr %41, null
  br i1 %42, label %43, label %lean_alloc_ctor.exit

43:                                               ; preds = %lean_dec.exit
  tail call void @lean_internal_panic_out_of_memory() #6
  unreachable

lean_alloc_ctor.exit:                             ; preds = %lean_dec.exit
  %44 = getelementptr inbounds nuw i8, ptr %41, i64 4
  store i32 1, ptr %41, align 4, !tbaa !9
  store i32 131096, ptr %44, align 4
  %45 = getelementptr inbounds nuw i8, ptr %41, i64 8
  store ptr %23, ptr %45, align 8, !tbaa !7
  %46 = getelementptr inbounds nuw i8, ptr %41, i64 16
  store ptr %6, ptr %46, align 8, !tbaa !7
  br label %47

47:                                               ; preds = %lean_alloc_ctor.exit, %lean_dec.exit15
  %.0 = phi ptr [ %0, %lean_dec.exit15 ], [ %41, %lean_alloc_ctor.exit ]
  ret ptr %.0
}